target datalayout = "e-m:e-p270:32:32-p271:32:32-p272:64:64-i64:64-i128:128-f80:128-n8:16:32:64-S128"
target triple = "x86_64-pc-linux-gnu"

%struct._io_graph_settings_t = type { i8, i8, ptr, ptr, i32, i32, i32, ptr, i32, i32 }

@.str.262 = private unnamed_addr constant [8 x i8] c"Enabled\00", align 1
@.str.290 = private unnamed_addr constant [5 x i8] c"true\00", align 1

; Function Attrs: mustprogress null_pointer_is_valid sspstrong uwtable
define internal void @_ZL21io_graph_asAOT_set_cbPvPKcjPKvS3_(ptr noundef %0, ptr noundef %1, i32 noundef %2, ptr noundef %3, ptr noundef %4) #3 {
  %6 = alloca ptr, align 8
  %7 = alloca ptr, align 8
  %8 = alloca i32, align 4
  %9 = alloca ptr, align 8
  %10 = alloca ptr, align 8
  %11 = alloca ptr, align 8
  store ptr %0, ptr %6, align 8
  store ptr %1, ptr %7, align 8
  store i32 %2, ptr %8, align 4
  store ptr %3, ptr %9, align 8
  store ptr %4, ptr %10, align 8
  call void @llvm.lifetime.start.p0(i64 8, ptr %11) #2
  %12 = load ptr, ptr %7, align 8
  %13 = load i32, ptr %8, align 4
  %14 = zext i32 %13 to i64
  %15 = call noalias ptr @g_strndup(ptr noundef %12, i64 noundef %14)
  store ptr %15, ptr %11, align 8
  %16 = load ptr, ptr %11, align 8
  %17 = icmp ne ptr %16, null
  br i1 %17, label %18, label %29

18:                                               ; preds = %5
  %19 = load ptr, ptr %11, align 8
  %20 = call i32 @g_strcmp0(ptr noundef %19, ptr noundef @.str.262)
  %21 = icmp eq i32 %20, 0
  br i1 %21, label %26, label %22

22:                                               ; preds = %18
  %23 = load ptr, ptr %11, align 8
  %24 = call i32 @g_ascii_strcasecmp(ptr noundef %23, ptr noundef @.str.290)
  %25 = icmp eq i32 %24, 0
  br i1 %25, label %26, label %29

26:                                               ; preds = %22, %18
  %27 = load ptr, ptr %6, align 8
  %28 = getelementptr inbounds nuw %struct._io_graph_settings_t, ptr %27, i32 0, i32 1
  store i8 1, ptr %28, align 1
  br label %32

29:                                               ; preds = %22, %5
  %30 = load ptr, ptr %6, align 8
  %31 = getelementptr inbounds nuw %struct._io_graph_settings_t, ptr %30, i32 0, i32 1
  store i8 0, ptr %31, align 1
  br label %32

32:                                               ; preds = %29, %26
  %33 = load ptr, ptr %11, align 8
  call void @g_free(ptr noundef %33)
  call void @llvm.lifetime.end.p0(i64 8, ptr %11) #2
  ret void
}