; Function Attrs: mustprogress null_pointer_is_valid sspstrong uwtable
define internal void @_ZL21io_graph_asAOT_set_cbPvPKcjPKvS3_(ptr noundef writeonly captures(none) initializes((1, 2)) %0, ptr noundef %1, i32 noundef %2, ptr readnone captures(none) %3, ptr readnone captures(none) %4) #2 {
  %6 = zext i32 %2 to i64
  %7 = tail call noalias ptr @g_strndup(ptr noundef %1, i64 noundef %6)
  %.not = icmp eq ptr %7, null
  br i1 %.not, label %14, label %8

8:                                                ; preds = %5
  %9 = tail call i32 @g_strcmp0(ptr noundef nonnull %7, ptr noundef nonnull @.str.262)
  %10 = icmp eq i32 %9, 0
  br i1 %10, label %15, label %11

11:                                               ; preds = %8
  %12 = tail call i32 @g_ascii_strcasecmp(ptr noundef nonnull %7, ptr noundef nonnull @.str.290)
  %13 = icmp eq i32 %12, 0
  br i1 %13, label %15, label %14

14:                                               ; preds = %11, %5
  br label %15

15:                                               ; preds = %8, %11, %14
  %.sink = phi i8 [ 0, %14 ], [ 1, %11 ], [ 1, %8 ]
  %16 = getelementptr inbounds nuw i8, ptr %0, i64 1
  store i8 %.sink, ptr %16, align 1
  tail call void @g_free(ptr noundef %7)
  ret void
}